target datalayout = "e-m:e-p270:32:32-p271:32:32-p272:64:64-i64:64-i128:128-f80:128-n8:16:32:64-S128"
target triple = "x86_64-pc-linux-gnu"

%struct._e_guid_t = type { i32, i16, i16, [8 x i8] }
%struct._dcerpc_dg_call_key = type { ptr, i32, %struct._e_guid_t }

; Function Attrs: nounwind null_pointer_is_valid sspstrong uwtable
define internal i32 @dcerpc_dg_call_hash(ptr noundef %0) #10 {
  %2 = alloca ptr, align 8
  %3 = alloca ptr, align 8
  store ptr %0, ptr %2, align 8
  call void @llvm.lifetime.start.p0(i64 8, ptr %3) #19
  %4 = load ptr, ptr %2, align 8
  store ptr %4, ptr %3, align 8
  %5 = load ptr, ptr %3, align 8
  %6 = getelementptr inbounds nuw %struct._dcerpc_dg_call_key, ptr %5, i32 0, i32 0
  %7 = load ptr, ptr %6, align 8
  %8 = ptrtoint ptr %7 to i64
  %9 = trunc i64 %8 to i32
  %10 = load ptr, ptr %3, align 8
  %11 = getelementptr inbounds nuw %struct._dcerpc_dg_call_key, ptr %10, i32 0, i32 1
  %12 = load i32, ptr %11, align 8
  %13 = add i32 %9, %12
  %14 = load ptr, ptr %3, align 8
  %15 = getelementptr inbounds nuw %struct._dcerpc_dg_call_key, ptr %14, i32 0, i32 2
  %16 = getelementptr inbounds nuw %struct._e_guid_t, ptr %15, i32 0, i32 0
  %17 = load i32, ptr %16, align 4
  %18 = add i32 %13, %17
  %19 = load ptr, ptr %3, align 8
  %20 = getelementptr inbounds nuw %struct._dcerpc_dg_call_key, ptr %19, i32 0, i32 2
  %21 = getelementptr inbounds nuw %struct._e_guid_t, ptr %20, i32 0, i32 1
  %22 = load i16, ptr %21, align 4
  %23 = zext i16 %22 to i32
  %24 = shl i32 %23, 16
  %25 = add i32 %18, %24
  %26 = load ptr, ptr %3, align 8
  %27 = getelementptr inbounds nuw %struct._dcerpc_dg_call_key, ptr %26, i32 0, i32 2
  %28 = getelementptr inbounds nuw %struct._e_guid_t, ptr %27, i32 0, i32 2
  %29 = load i16, ptr %28, align 2
  %30 = zext i16 %29 to i32
  %31 = add i32 %25, %30
  %32 = load ptr, ptr %3, align 8
  %33 = getelementptr inbounds nuw %struct._dcerpc_dg_call_key, ptr %32, i32 0, i32 2
  %34 = getelementptr inbounds nuw %struct._e_guid_t, ptr %33, i32 0, i32 3
  %35 = getelementptr [8 x i8], ptr %34, i64 0, i64 0
  %36 = load i8, ptr %35, align 4
  %37 = zext i8 %36 to i32
  %38 = shl i32 %37, 24
  %39 = add i32 %31, %38
  %40 = load ptr, ptr %3, align 8
  %41 = getelementptr inbounds nuw %struct._dcerpc_dg_call_key, ptr %40, i32 0, i32 2
  %42 = getelementptr inbounds nuw %struct._e_guid_t, ptr %41, i32 0, i32 3
  %43 = getelementptr [8 x i8], ptr %42, i64 0, i64 1
  %44 = load i8, ptr %43, align 1
  %45 = zext i8 %44 to i32
  %46 = shl i32 %45, 16
  %47 = add i32 %39, %46
  %48 = load ptr, ptr %3, align 8
  %49 = getelementptr inbounds nuw %struct._dcerpc_dg_call_key, ptr %48, i32 0, i32 2
  %50 = getelementptr inbounds nuw %struct._e_guid_t, ptr %49, i32 0, i32 3
  %51 = getelementptr [8 x i8], ptr %50, i64 0, i64 2
  %52 = load i8, ptr %51, align 2
  %53 = zext i8 %52 to i32
  %54 = shl i32 %53, 8
  %55 = add i32 %47, %54
  %56 = load ptr, ptr %3, align 8
  %57 = getelementptr inbounds nuw %struct._dcerpc_dg_call_key, ptr %56, i32 0, i32 2
  %58 = getelementptr inbounds nuw %struct._e_guid_t, ptr %57, i32 0, i32 3
  %59 = getelementptr [8 x i8], ptr %58, i64 0, i64 3
  %60 = load i8, ptr %59, align 1
  %61 = zext i8 %60 to i32
  %62 = shl i32 %61, 0
  %63 = add i32 %55, %62
  %64 = load ptr, ptr %3, align 8
  %65 = getelementptr inbounds nuw %struct._dcerpc_dg_call_key, ptr %64, i32 0, i32 2
  %66 = getelementptr inbounds nuw %struct._e_guid_t, ptr %65, i32 0, i32 3
  %67 = getelementptr [8 x i8], ptr %66, i64 0, i64 4
  %68 = load i8, ptr %67, align 4
  %69 = zext i8 %68 to i32
  %70 = shl i32 %69, 24
  %71 = add i32 %63, %70
  %72 = load ptr, ptr %3, align 8
  %73 = getelementptr inbounds nuw %struct._dcerpc_dg_call_key, ptr %72, i32 0, i32 2
  %74 = getelementptr inbounds nuw %struct._e_guid_t, ptr %73, i32 0, i32 3
  %75 = getelementptr [8 x i8], ptr %74, i64 0, i64 5
  %76 = load i8, ptr %75, align 1
  %77 = zext i8 %76 to i32
  %78 = shl i32 %77, 16
  %79 = add i32 %71, %78
  %80 = load ptr, ptr %3, align 8
  %81 = getelementptr inbounds nuw %struct._dcerpc_dg_call_key, ptr %80, i32 0, i32 2
  %82 = getelementptr inbounds nuw %struct._e_guid_t, ptr %81, i32 0, i32 3
  %83 = getelementptr [8 x i8], ptr %82, i64 0, i64 6
  %84 = load i8, ptr %83, align 2
  %85 = zext i8 %84 to i32
  %86 = shl i32 %85, 8
  %87 = add i32 %79, %86
  %88 = load ptr, ptr %3, align 8
  %89 = getelementptr inbounds nuw %struct._dcerpc_dg_call_key, ptr %88, i32 0, i32 2
  %90 = getelementptr inbounds nuw %struct._e_guid_t, ptr %89, i32 0, i32 3
  %91 = getelementptr [8 x i8], ptr %90, i64 0, i64 7
  %92 = load i8, ptr %91, align 1
  %93 = zext i8 %92 to i32
  %94 = shl i32 %93, 0
  %95 = add i32 %87, %94
  call void @llvm.lifetime.end.p0(i64 8, ptr %3) #19
  ret i32 %95
}