; Function Attrs: mustprogress nofree norecurse nosync nounwind null_pointer_is_valid sspstrong willreturn memory(argmem: read) uwtable
define internal i32 @dcerpc_dg_call_hash(ptr noundef readonly captures(none) %0) #7 {
  %2 = load ptr, ptr %0, align 8
  %3 = ptrtoint ptr %2 to i64
  %4 = trunc i64 %3 to i32
  %5 = getelementptr inbounds nuw i8, ptr %0, i64 8
  %6 = load i32, ptr %5, align 8
  %7 = getelementptr inbounds nuw i8, ptr %0, i64 12
  %8 = load i32, ptr %7, align 4
  %9 = getelementptr inbounds nuw i8, ptr %0, i64 16
  %10 = load i16, ptr %9, align 4
  %11 = zext i16 %10 to i32
  %12 = getelementptr inbounds nuw i8, ptr %0, i64 18
  %13 = load i16, ptr %12, align 2
  %14 = zext i16 %13 to i32
  %15 = getelementptr inbounds nuw i8, ptr %0, i64 20
  %16 = load i8, ptr %15, align 4
  %17 = zext i8 %16 to i32
  %18 = getelementptr i8, ptr %0, i64 21
  %19 = load i8, ptr %18, align 1
  %20 = zext i8 %19 to i32
  %21 = getelementptr i8, ptr %0, i64 22
  %22 = load i8, ptr %21, align 2
  %23 = zext i8 %22 to i32
  %24 = getelementptr i8, ptr %0, i64 23
  %25 = load i8, ptr %24, align 1
  %26 = zext i8 %25 to i32
  %27 = getelementptr i8, ptr %0, i64 24
  %28 = load i8, ptr %27, align 4
  %29 = zext i8 %28 to i32
  %30 = getelementptr i8, ptr %0, i64 25
  %31 = load i8, ptr %30, align 1
  %32 = zext i8 %31 to i32
  %33 = getelementptr i8, ptr %0, i64 26
  %34 = load i8, ptr %33, align 2
  %35 = zext i8 %34 to i32
  %36 = getelementptr i8, ptr %0, i64 27
  %37 = load i8, ptr %36, align 1
  %38 = zext i8 %37 to i32
  %reass.add = add nuw nsw i32 %20, %11
  %reass.add14 = add nuw nsw i32 %reass.add, %32
  %reass.mul = shl i32 %reass.add14, 16
  %reass.add15 = add nuw nsw i32 %35, %23
  %reass.mul16 = shl nuw nsw i32 %reass.add15, 8
  %reass.add17 = add nuw nsw i32 %29, %17
  %reass.mul18 = shl i32 %reass.add17, 24
  %39 = add i32 %6, %4
  %40 = add i32 %39, %8
  %41 = add i32 %40, %14
  %42 = add i32 %41, %26
  %43 = add i32 %42, %reass.mul18
  %44 = add i32 %43, %38
  %45 = add i32 %44, %reass.mul
  %46 = add i32 %45, %reass.mul16
  ret i32 %46
}